; Function Attrs: mustprogress uwtable
define dso_local void @_ZN17cmFindFileCommandC2ER17cmExecutionStatus(ptr noundef nonnull align 8 dereferenceable(601) %0, ptr noundef nonnull align 1 %1) unnamed_addr #0 align 2 personality ptr @__gxx_personality_v0 {
  %3 = alloca %"class.std::__cxx11::basic_string", align 8
  %4 = alloca %"class.std::allocator.0", align 1
  call void @_ZNSaIcEC1Ev(ptr noundef nonnull align 1 dereferenceable(1) %4) #6
  %5 = invoke noundef ptr @_ZNSt7__cxx1112basic_stringIcSt11char_traitsIcESaIcEE13_M_local_dataEv(ptr noundef nonnull align 8 dereferenceable(32) %3)
          to label %.noexc unwind label %11

.noexc:                                           ; preds = %2
  invoke void @_ZNSt7__cxx1112basic_stringIcSt11char_traitsIcESaIcEE12_Alloc_hiderC1EPcRKS3_(ptr noundef nonnull align 8 dereferenceable(8) %3, ptr noundef %5, ptr noundef nonnull align 1 dereferenceable(1) %4)
          to label %.noexc5 unwind label %11

.noexc5:                                          ; preds = %.noexc
  invoke void @_ZNSt7__cxx1112basic_stringIcSt11char_traitsIcESaIcEE12_M_constructIPKcEEvT_S8_St20forward_iterator_tag(ptr noundef nonnull align 8 dereferenceable(32) %3, ptr noundef nonnull @.str, ptr noundef nonnull getelementptr inbounds ([10 x i8], ptr @.str, i64 0, i64 9))
          to label %_ZNSt7__cxx1112basic_stringIcSt11char_traitsIcESaIcEEC2IS3_EEPKcRKS3_.exit unwind label %6

6:                                                ; preds = %.noexc5
  %7 = landingpad { ptr, i32 }
          cleanup
  call void @_ZNSaIcED2Ev(ptr noundef nonnull align 1 dereferenceable(1) %3) #6
  br label %.body

_ZNSt7__cxx1112basic_stringIcSt11char_traitsIcESaIcEEC2IS3_EEPKcRKS3_.exit: ; preds = %.noexc5
  invoke void @_ZN17cmFindPathCommandC2ENSt7__cxx1112basic_stringIcSt11char_traitsIcESaIcEEER17cmExecutionStatus(ptr noundef nonnull align 8 dereferenceable(601) %0, ptr noundef nonnull %3, ptr noundef nonnull align 1 %1)
          to label %8 unwind label %13

8:                                                ; preds = %_ZNSt7__cxx1112basic_stringIcSt11char_traitsIcESaIcEEC2IS3_EEPKcRKS3_.exit
  call void @_ZNSt7__cxx1112basic_stringIcSt11char_traitsIcESaIcEED1Ev(ptr noundef nonnull align 8 dereferenceable(32) %3) #6
  call void @_ZNSaIcED1Ev(ptr noundef nonnull align 1 dereferenceable(1) %4) #6
  store ptr getelementptr inbounds ({ [5 x ptr] }, ptr @_ZTV17cmFindFileCommand, i64 0, i32 0, i64 2), ptr %0, align 8
  %9 = getelementptr inbounds i8, ptr %0, i64 600
  store i8 1, ptr %9, align 8
  %10 = getelementptr inbounds i8, ptr %0, i64 456
  store i32 2, ptr %10, align 8
  ret void

11:                                               ; preds = %.noexc, %2
  %12 = landingpad { ptr, i32 }
          cleanup
  br label %.body

13:                                               ; preds = %_ZNSt7__cxx1112basic_stringIcSt11char_traitsIcESaIcEEC2IS3_EEPKcRKS3_.exit
  %14 = landingpad { ptr, i32 }
          cleanup
  call void @_ZNSt7__cxx1112basic_stringIcSt11char_traitsIcESaIcEED1Ev(ptr noundef nonnull align 8 dereferenceable(32) %3) #6
  br label %.body

.body:                                            ; preds = %11, %6, %13
  %.pn = phi { ptr, i32 } [ %14, %13 ], [ %12, %11 ], [ %7, %6 ]
  call void @_ZNSaIcED1Ev(ptr noundef nonnull align 1 dereferenceable(1) %4) #6
  resume { ptr, i32 } %.pn
}